target datalayout = "e-m:e-p270:32:32-p271:32:32-p272:64:64-i64:64-i128:128-f80:128-n8:16:32:64-S128"
target triple = "x86_64-pc-linux-gnu"

%class.RelocationHolder = type { [40 x i8] }
%class.RelocIterator = type { ptr, ptr, ptr, ptr, ptr, i16, ptr, i16, [3 x ptr], [3 x ptr], %class.RelocationHolder }
%class.relocInfo = type { i16 }
%class.Relocation = type <{ ptr, ptr, i32, [4 x i8] }>

@_ZTV10Relocation = external unnamed_addr constant { [11 x ptr] }, align 8

; Function Attrs: mustprogress nounwind uwtable
define linkonce_odr hidden void @_ZN10RelocationC2EN9relocInfo9relocTypeE(ptr noundef nonnull align 8 dereferenceable(20) %0, i32 noundef %1) unnamed_addr #1 comdat align 2 {
  %3 = alloca ptr, align 8
  %4 = alloca i32, align 4
  store ptr %0, ptr %3, align 8
  store i32 %1, ptr %4, align 4
  %5 = load ptr, ptr %3, align 8
  store ptr getelementptr inbounds inrange(-16, 72) ({ [11 x ptr] }, ptr @_ZTV10Relocation, i32 0, i32 0, i32 2), ptr %5, align 8
  %6 = getelementptr inbounds %class.Relocation, ptr %5, i32 0, i32 1
  store ptr null, ptr %6, align 8
  %7 = getelementptr inbounds %class.Relocation, ptr %5, i32 0, i32 2
  %8 = load i32, ptr %4, align 4
  store i32 %8, ptr %7, align 8
  ret void
}

; Function Attrs: mustprogress nounwind uwtable
define linkonce_odr hidden void @_ZN10RelocationC2Ev(ptr noundef nonnull align 8 dereferenceable(20) %0) unnamed_addr #1 comdat align 2 {
  %2 = alloca ptr, align 8
  store ptr %0, ptr %2, align 8
  %3 = load ptr, ptr %2, align 8
  call void @_ZN10RelocationC2EN9relocInfo9relocTypeE(ptr noundef nonnull align 8 dereferenceable(20) %3, i32 noundef 0)
  ret void
}

; Function Attrs: mustprogress nounwind uwtable
define linkonce_odr hidden void @_ZN16RelocationHolder18emplace_relocationI10RelocationJEEEvDpRKT0_(ptr noundef nonnull align 8 dereferenceable(40) %0) #1 comdat align 2 {
  %2 = alloca ptr, align 8
  %3 = alloca ptr, align 8
  store ptr %0, ptr %2, align 8
  %4 = load ptr, ptr %2, align 8
  %5 = getelementptr inbounds %class.RelocationHolder, ptr %4, i32 0, i32 0
  %6 = getelementptr inbounds [40 x i8], ptr %5, i64 0, i64 0
  call void @_ZN10RelocationC2Ev(ptr noundef nonnull align 8 dereferenceable(20) %6)
  store ptr %6, ptr %3, align 8
  ret void
}

; Function Attrs: mustprogress nounwind uwtable
define linkonce_odr hidden void @_ZN16RelocationHolderC2I10RelocationJEEENS_9ConstructIT_EEDpRKT0_(ptr noundef nonnull align 8 dereferenceable(40) %0) unnamed_addr #1 comdat align 2 {
  %2 = alloca ptr, align 8
  store ptr %0, ptr %2, align 8
  %3 = load ptr, ptr %2, align 8
  call void @_ZN16RelocationHolder18emplace_relocationI10RelocationJEEEvDpRKT0_(ptr noundef nonnull align 8 dereferenceable(40) %3)
  ret void
}

; Function Attrs: mustprogress nounwind uwtable
define linkonce_odr hidden noundef i32 @_ZNK9relocInfo4typeEv(ptr noundef nonnull align 2 dereferenceable(2) %0) #1 comdat align 2 {
  %2 = alloca ptr, align 8
  store ptr %0, ptr %2, align 8
  %3 = load ptr, ptr %2, align 8
  %4 = getelementptr inbounds %class.relocInfo, ptr %3, i32 0, i32 0
  %5 = load i16, ptr %4, align 2
  %6 = zext i16 %5 to i32
  %7 = lshr i32 %6, 11
  ret i32 %7
}

; Function Attrs: mustprogress nounwind uwtable
define linkonce_odr hidden noundef ptr @_ZNK13RelocIterator7currentEv(ptr noundef nonnull align 8 dereferenceable(152) %0) #1 comdat align 2 {
  %2 = alloca ptr, align 8
  store ptr %0, ptr %2, align 8
  %3 = load ptr, ptr %2, align 8
  %4 = getelementptr inbounds %class.RelocIterator, ptr %3, i32 0, i32 1
  %5 = load ptr, ptr %4, align 8
  ret ptr %5
}

; Function Attrs: mustprogress nounwind uwtable
define linkonce_odr hidden noundef i32 @_ZNK9relocInfo11addr_offsetEv(ptr noundef nonnull align 2 dereferenceable(2) %0) #1 comdat align 2 {
  %2 = alloca ptr, align 8
  store ptr %0, ptr %2, align 8
  %3 = load ptr, ptr %2, align 8
  %4 = getelementptr inbounds %class.relocInfo, ptr %3, i32 0, i32 0
  %5 = load i16, ptr %4, align 2
  %6 = zext i16 %5 to i32
  %7 = and i32 %6, 255
  %8 = mul nsw i32 %7, 1
  ret i32 %8
}

; Function Attrs: mustprogress nounwind uwtable
define linkonce_odr hidden noundef zeroext i1 @_ZNK9relocInfo9is_prefixEv(ptr noundef nonnull align 2 dereferenceable(2) %0) #1 comdat align 2 {
  %2 = alloca ptr, align 8
  store ptr %0, ptr %2, align 8
  %3 = load ptr, ptr %2, align 8
  %4 = call noundef i32 @_ZNK9relocInfo4typeEv(ptr noundef nonnull align 2 dereferenceable(2) %3)
  %5 = icmp eq i32 %4, 15
  ret i1 %5
}

; Function Attrs: mustprogress nounwind uwtable
define linkonce_odr hidden void @_ZN13RelocIterator15set_has_currentEb(ptr noundef nonnull align 8 dereferenceable(152) %0, i1 noundef zeroext %1) #1 comdat align 2 {
  %3 = alloca ptr, align 8
  %4 = alloca i8, align 1
  store ptr %0, ptr %3, align 8
  %5 = zext i1 %1 to i8
  store i8 %5, ptr %4, align 1
  %6 = load ptr, ptr %3, align 8
  %7 = load i8, ptr %4, align 1
  %8 = trunc i8 %7 to i1
  %9 = xor i1 %8, true
  %10 = select i1 %9, i32 -1, i32 0
  %11 = trunc i32 %10 to i16
  %12 = getelementptr inbounds %class.RelocIterator, ptr %6, i32 0, i32 7
  store i16 %11, ptr %12, align 8
  ret void
}

; Function Attrs: mustprogress nounwind uwtable
define linkonce_odr hidden void @_ZN16RelocationHolderC2Ev(ptr noundef nonnull align 8 dereferenceable(40) %0) unnamed_addr #1 comdat align 2 {
  %2 = alloca ptr, align 8
  store ptr %0, ptr %2, align 8
  %3 = load ptr, ptr %2, align 8
  call void @_ZN16RelocationHolderC2I10RelocationJEEENS_9ConstructIT_EEDpRKT0_(ptr noundef nonnull align 8 dereferenceable(40) %3)
  ret void
}

; Function Attrs: mustprogress nounwind uwtable
define linkonce_odr hidden noundef i32 @_ZNK13RelocIterator4typeEv(ptr noundef nonnull align 8 dereferenceable(152) %0) #1 comdat align 2 {
  %2 = alloca ptr, align 8
  store ptr %0, ptr %2, align 8
  %3 = load ptr, ptr %2, align 8
  %4 = call noundef ptr @_ZNK13RelocIterator7currentEv(ptr noundef nonnull align 8 dereferenceable(152) %3)
  %5 = call noundef i32 @_ZNK9relocInfo4typeEv(ptr noundef nonnull align 2 dereferenceable(2) %4)
  ret i32 %5
}

; Function Attrs: mustprogress nounwind uwtable
define linkonce_odr hidden noundef zeroext i1 @_ZN13RelocIterator4nextEv(ptr noundef nonnull align 8 dereferenceable(152) %0) #1 comdat align 2 {
  %2 = alloca i1, align 1
  %3 = alloca ptr, align 8
  store ptr %0, ptr %3, align 8
  %4 = load ptr, ptr %3, align 8
  %5 = getelementptr inbounds %class.RelocIterator, ptr %4, i32 0, i32 1
  %6 = load ptr, ptr %5, align 8
  %7 = getelementptr inbounds %class.relocInfo, ptr %6, i32 1
  store ptr %7, ptr %5, align 8
  %8 = getelementptr inbounds %class.RelocIterator, ptr %4, i32 0, i32 1
  %9 = load ptr, ptr %8, align 8
  %10 = getelementptr inbounds %class.RelocIterator, ptr %4, i32 0, i32 2
  %11 = load ptr, ptr %10, align 8
  %12 = icmp eq ptr %9, %11
  br i1 %12, label %13, label %14

13:                                               ; preds = %1
  call void @_ZN13RelocIterator15set_has_currentEb(ptr noundef nonnull align 8 dereferenceable(152) %4, i1 noundef zeroext false)
  store i1 false, ptr %2, align 1
  br label %38

14:                                               ; preds = %1
  call void @_ZN13RelocIterator15set_has_currentEb(ptr noundef nonnull align 8 dereferenceable(152) %4, i1 noundef zeroext true)
  %15 = getelementptr inbounds %class.RelocIterator, ptr %4, i32 0, i32 1
  %16 = load ptr, ptr %15, align 8
  %17 = call noundef zeroext i1 @_ZNK9relocInfo9is_prefixEv(ptr noundef nonnull align 2 dereferenceable(2) %16)
  br i1 %17, label %18, label %19

18:                                               ; preds = %14
  call void @_ZN13RelocIterator19advance_over_prefixEv(ptr noundef nonnull align 8 dereferenceable(152) %4)
  br label %19

19:                                               ; preds = %18, %14
  %20 = getelementptr inbounds %class.RelocIterator, ptr %4, i32 0, i32 1
  %21 = load ptr, ptr %20, align 8
  %22 = call noundef i32 @_ZNK9relocInfo11addr_offsetEv(ptr noundef nonnull align 2 dereferenceable(2) %21)
  %23 = getelementptr inbounds %class.RelocIterator, ptr %4, i32 0, i32 4
  %24 = load ptr, ptr %23, align 8
  %25 = sext i32 %22 to i64
  %26 = getelementptr inbounds i8, ptr %24, i64 %25
  store ptr %26, ptr %23, align 8
  %27 = getelementptr inbounds %class.RelocIterator, ptr %4, i32 0, i32 0
  %28 = load ptr, ptr %27, align 8
  %29 = icmp ne ptr %28, null
  br i1 %29, label %30, label %37

30:                                               ; preds = %19
  %31 = getelementptr inbounds %class.RelocIterator, ptr %4, i32 0, i32 4
  %32 = load ptr, ptr %31, align 8
  %33 = getelementptr inbounds %class.RelocIterator, ptr %4, i32 0, i32 0
  %34 = load ptr, ptr %33, align 8
  %35 = icmp uge ptr %32, %34
  br i1 %35, label %36, label %37

36:                                               ; preds = %30
  call void @_ZN13RelocIterator15set_has_currentEb(ptr noundef nonnull align 8 dereferenceable(152) %4, i1 noundef zeroext false)
  store i1 false, ptr %2, align 1
  br label %38

37:                                               ; preds = %30, %19
  store i1 true, ptr %2, align 1
  br label %38

38:                                               ; preds = %37, %36, %13
  %39 = load i1, ptr %2, align 1
  ret i1 %39
}

; Function Attrs: mustprogress nounwind uwtable
define linkonce_odr hidden void @_ZN13RelocIteratorC2EP7nmethodPhS2_(ptr noundef nonnull align 8 dereferenceable(152) %0, ptr noundef %1, ptr noundef %2, ptr noundef %3) unnamed_addr #1 comdat align 2 {
  %5 = alloca ptr, align 8
  %6 = alloca ptr, align 8
  %7 = alloca ptr, align 8
  %8 = alloca ptr, align 8
  store ptr %0, ptr %5, align 8
  store ptr %1, ptr %6, align 8
  store ptr %2, ptr %7, align 8
  store ptr %3, ptr %8, align 8
  %9 = load ptr, ptr %5, align 8
  %10 = getelementptr inbounds %class.RelocIterator, ptr %9, i32 0, i32 10
  call void @_ZN16RelocationHolderC2Ev(ptr noundef nonnull align 8 dereferenceable(40) %10)
  %11 = load ptr, ptr %6, align 8
  %12 = load ptr, ptr %7, align 8
  %13 = load ptr, ptr %8, align 8
  call void @_ZN13RelocIterator10initializeEP7nmethodPhS2_(ptr noundef nonnull align 8 dereferenceable(152) %9, ptr noundef %11, ptr noundef %12, ptr noundef %13)
  ret void
}

; Function Attrs: mustprogress nounwind uwtable
define hidden noundef zeroext i1 @_ZN7nmethod17is_at_poll_returnEPh(ptr noundef nonnull align 8 dereferenceable(214) %0, ptr noundef %1) #1 align 2 {
  %3 = alloca i1, align 1
  %4 = alloca ptr, align 8
  %5 = alloca ptr, align 8
  %6 = alloca %class.RelocIterator, align 8
  store ptr %0, ptr %4, align 8
  store ptr %1, ptr %5, align 8
  %7 = load ptr, ptr %4, align 8
  %8 = load ptr, ptr %5, align 8
  %9 = load ptr, ptr %5, align 8
  %10 = getelementptr inbounds i8, ptr %9, i64 1
  call void @_ZN13RelocIteratorC2EP7nmethodPhS2_(ptr noundef nonnull align 8 dereferenceable(152) %6, ptr noundef %7, ptr noundef %8, ptr noundef %10)
  br label %11

11:                                               ; preds = %17, %2
  %12 = call noundef zeroext i1 @_ZN13RelocIterator4nextEv(ptr noundef nonnull align 8 dereferenceable(152) %6)
  br i1 %12, label %13, label %18

13:                                               ; preds = %11
  %14 = call noundef i32 @_ZNK13RelocIterator4typeEv(ptr noundef nonnull align 8 dereferenceable(152) %6)
  %15 = icmp eq i32 %14, 11
  br i1 %15, label %16, label %17

16:                                               ; preds = %13
  store i1 true, ptr %3, align 1
  br label %19

17:                                               ; preds = %13
  br label %11, !llvm.loop !15

18:                                               ; preds = %11
  store i1 false, ptr %3, align 1
  br label %19

19:                                               ; preds = %18, %16
  %20 = load i1, ptr %3, align 1
  ret i1 %20
}