; Function Attrs: mustprogress nounwind uwtable
define hidden noundef zeroext i1 @_ZN7nmethod17is_at_poll_returnEPh(ptr noundef nonnull align 8 dereferenceable(214) %0, ptr noundef %1) local_unnamed_addr #0 align 2 {
  %3 = alloca %class.RelocIterator, align 8
  %4 = getelementptr inbounds i8, ptr %1, i64 1
  %5 = getelementptr inbounds i8, ptr %3, i64 112
  store ptr getelementptr inbounds inrange(-16, 72) (i8, ptr @_ZTV10Relocation, i64 16), ptr %5, align 8
  %6 = getelementptr inbounds i8, ptr %3, i64 120
  store ptr null, ptr %6, align 8
  %7 = getelementptr inbounds i8, ptr %3, i64 128
  store i32 0, ptr %7, align 8
  call void @_ZN13RelocIterator10initializeEP7nmethodPhS2_(ptr noundef nonnull align 8 dereferenceable(152) %3, ptr noundef nonnull %0, ptr noundef %1, ptr noundef nonnull %4) #23
  %8 = getelementptr inbounds i8, ptr %3, i64 8
  %9 = getelementptr inbounds i8, ptr %3, i64 16
  %10 = getelementptr inbounds i8, ptr %3, i64 56
  %11 = getelementptr inbounds i8, ptr %3, i64 32
  %.pre = load ptr, ptr %8, align 8
  br label %12

12:                                               ; preds = %29, %2
  %13 = phi ptr [ %22, %29 ], [ %.pre, %2 ]
  %14 = getelementptr inbounds i8, ptr %13, i64 2
  store ptr %14, ptr %8, align 8
  %15 = load ptr, ptr %9, align 8
  %16 = icmp eq ptr %14, %15
  br i1 %16, label %.loopexit, label %17

17:                                               ; preds = %12
  store i16 0, ptr %10, align 8
  %18 = load i16, ptr %14, align 2
  %.mask.i.i = and i16 %18, -2048
  %19 = icmp eq i16 %.mask.i.i, 30720
  br i1 %19, label %20, label %21

20:                                               ; preds = %17
  call void @_ZN13RelocIterator19advance_over_prefixEv(ptr noundef nonnull align 8 dereferenceable(152) %3) #23
  %.pre.i = load ptr, ptr %8, align 8
  %.pre4.i = load i16, ptr %.pre.i, align 2
  br label %21

21:                                               ; preds = %20, %17
  %22 = phi ptr [ %.pre.i, %20 ], [ %14, %17 ]
  %23 = phi i16 [ %.pre4.i, %20 ], [ %18, %17 ]
  %24 = and i16 %23, 255
  %25 = load ptr, ptr %11, align 8
  %26 = zext nneg i16 %24 to i64
  %27 = getelementptr inbounds i8, ptr %25, i64 %26
  store ptr %27, ptr %11, align 8
  %28 = load ptr, ptr %3, align 8
  %.not.i = icmp eq ptr %28, null
  %.not3.i = icmp ult ptr %27, %28
  %or.cond.i = select i1 %.not.i, i1 true, i1 %.not3.i
  br i1 %or.cond.i, label %29, label %.loopexit

29:                                               ; preds = %21
  %30 = load i16, ptr %22, align 2
  %.mask = and i16 %30, -2048
  %31 = icmp eq i16 %.mask, 22528
  br i1 %31, label %.loopexit, label %12, !llvm.loop !20

.loopexit:                                        ; preds = %29, %21, %12
  %.0.i5 = phi i1 [ false, %12 ], [ false, %21 ], [ true, %29 ]
  ret i1 %.0.i5
}